target datalayout = "e-m:e-p270:32:32-p271:32:32-p272:64:64-i64:64-i128:128-f80:128-n8:16:32:64-S128"
target triple = "x86_64-unknown-linux-gnu"

%struct.Token = type { i32, ptr, i64, x86_fp80, ptr, i32, ptr, ptr, ptr, ptr, i32, i32, i8, i8, ptr, ptr }

@.str.72 = private unnamed_addr constant [3 x i8] c"if\00", align 1
@.str.73 = private unnamed_addr constant [6 x i8] c"ifdef\00", align 1
@.str.74 = private unnamed_addr constant [7 x i8] c"ifndef\00", align 1
@.str.79 = private unnamed_addr constant [6 x i8] c"endif\00", align 1
@.str.91 = private unnamed_addr constant [2 x i8] c"#\00", align 1

; Function Attrs: nounwind uwtable
define internal zeroext i1 @is_hash(ptr noundef %tok) #0 {
entry:
  %tok.addr = alloca ptr, align 8
  store ptr %tok, ptr %tok.addr, align 8
  %0 = load ptr, ptr %tok.addr, align 8
  %at_bol = getelementptr inbounds %struct.Token, ptr %0, i32 0, i32 12
  %1 = load i8, ptr %at_bol, align 8
  %tobool = trunc i8 %1 to i1
  br i1 %tobool, label %land.rhs, label %land.end

land.rhs:                                         ; preds = %entry
  %2 = load ptr, ptr %tok.addr, align 8
  %call = call zeroext i1 @equal(ptr noundef %2, ptr noundef @.str.91)
  br label %land.end

land.end:                                         ; preds = %land.rhs, %entry
  %3 = phi i1 [ false, %entry ], [ %call, %land.rhs ]
  ret i1 %3
}

; Function Attrs: nounwind uwtable
define internal ptr @skip_cond_incl2(ptr noundef %tok) #0 {
entry:
  %retval = alloca ptr, align 8
  %tok.addr = alloca ptr, align 8
  store ptr %tok, ptr %tok.addr, align 8
  br label %while.cond

while.cond:                                       ; preds = %if.end17, %if.then, %entry
  %0 = load ptr, ptr %tok.addr, align 8
  %kind = getelementptr inbounds %struct.Token, ptr %0, i32 0, i32 0
  %1 = load i32, ptr %kind, align 16
  %cmp = icmp ne i32 %1, 6
  br i1 %cmp, label %while.body, label %while.end

while.body:                                       ; preds = %while.cond
  %2 = load ptr, ptr %tok.addr, align 8
  %call = call zeroext i1 @is_hash(ptr noundef %2)
  br i1 %call, label %land.lhs.true, label %if.end

land.lhs.true:                                    ; preds = %while.body
  %3 = load ptr, ptr %tok.addr, align 8
  %next = getelementptr inbounds %struct.Token, ptr %3, i32 0, i32 1
  %4 = load ptr, ptr %next, align 8
  %call1 = call zeroext i1 @equal(ptr noundef %4, ptr noundef @.str.72)
  br i1 %call1, label %if.then, label %lor.lhs.false

lor.lhs.false:                                    ; preds = %land.lhs.true
  %5 = load ptr, ptr %tok.addr, align 8
  %next2 = getelementptr inbounds %struct.Token, ptr %5, i32 0, i32 1
  %6 = load ptr, ptr %next2, align 8
  %call3 = call zeroext i1 @equal(ptr noundef %6, ptr noundef @.str.73)
  br i1 %call3, label %if.then, label %lor.lhs.false4

lor.lhs.false4:                                   ; preds = %lor.lhs.false
  %7 = load ptr, ptr %tok.addr, align 8
  %next5 = getelementptr inbounds %struct.Token, ptr %7, i32 0, i32 1
  %8 = load ptr, ptr %next5, align 8
  %call6 = call zeroext i1 @equal(ptr noundef %8, ptr noundef @.str.74)
  br i1 %call6, label %if.then, label %if.end

if.then:                                          ; preds = %lor.lhs.false4, %lor.lhs.false, %land.lhs.true
  %9 = load ptr, ptr %tok.addr, align 8
  %next7 = getelementptr inbounds %struct.Token, ptr %9, i32 0, i32 1
  %10 = load ptr, ptr %next7, align 8
  %next8 = getelementptr inbounds %struct.Token, ptr %10, i32 0, i32 1
  %11 = load ptr, ptr %next8, align 8
  %call9 = call ptr @skip_cond_incl2(ptr noundef %11)
  store ptr %call9, ptr %tok.addr, align 8
  br label %while.cond, !llvm.loop !51

if.end:                                           ; preds = %lor.lhs.false4, %while.body
  %12 = load ptr, ptr %tok.addr, align 8
  %call10 = call zeroext i1 @is_hash(ptr noundef %12)
  br i1 %call10, label %land.lhs.true11, label %if.end17

land.lhs.true11:                                  ; preds = %if.end
  %13 = load ptr, ptr %tok.addr, align 8
  %next12 = getelementptr inbounds %struct.Token, ptr %13, i32 0, i32 1
  %14 = load ptr, ptr %next12, align 8
  %call13 = call zeroext i1 @equal(ptr noundef %14, ptr noundef @.str.79)
  br i1 %call13, label %if.then14, label %if.end17

if.then14:                                        ; preds = %land.lhs.true11
  %15 = load ptr, ptr %tok.addr, align 8
  %next15 = getelementptr inbounds %struct.Token, ptr %15, i32 0, i32 1
  %16 = load ptr, ptr %next15, align 8
  %next16 = getelementptr inbounds %struct.Token, ptr %16, i32 0, i32 1
  %17 = load ptr, ptr %next16, align 8
  store ptr %17, ptr %retval, align 8
  br label %return

if.end17:                                         ; preds = %land.lhs.true11, %if.end
  %18 = load ptr, ptr %tok.addr, align 8
  %next18 = getelementptr inbounds %struct.Token, ptr %18, i32 0, i32 1
  %19 = load ptr, ptr %next18, align 8
  store ptr %19, ptr %tok.addr, align 8
  br label %while.cond, !llvm.loop !51

while.end:                                        ; preds = %while.cond
  %20 = load ptr, ptr %tok.addr, align 8
  store ptr %20, ptr %retval, align 8
  br label %return

return:                                           ; preds = %while.end, %if.then14
  %21 = load ptr, ptr %retval, align 8
  ret ptr %21
}