; Function Attrs: nounwind uwtable
define internal fastcc ptr @skip_cond_incl2(ptr noundef %tok) unnamed_addr #0 {
entry:
  %0 = load i32, ptr %tok, align 16
  %cmp.not18 = icmp eq i32 %0, 6
  br i1 %cmp.not18, label %return, label %while.body

while.body:                                       ; preds = %entry, %while.cond.backedge
  %tok.addr.019 = phi ptr [ %tok.addr.0.be, %while.cond.backedge ], [ %tok, %entry ]
  %at_bol.i = getelementptr inbounds %struct.Token, ptr %tok.addr.019, i64 0, i32 12
  %1 = load i8, ptr %at_bol.i, align 8
  %2 = and i8 %1, 1
  %tobool.not.i = icmp eq i8 %2, 0
  br i1 %tobool.not.i, label %if.end, label %is_hash.exit

is_hash.exit:                                     ; preds = %while.body
  %call.i = tail call zeroext i1 @equal(ptr noundef nonnull %tok.addr.019, ptr noundef nonnull @.str.91) #14
  br i1 %call.i, label %land.lhs.true, label %if.end

land.lhs.true:                                    ; preds = %is_hash.exit
  %next = getelementptr inbounds %struct.Token, ptr %tok.addr.019, i64 0, i32 1
  %3 = load ptr, ptr %next, align 8
  %call1 = tail call zeroext i1 @equal(ptr noundef %3, ptr noundef nonnull @.str.72) #14
  br i1 %call1, label %if.then, label %lor.lhs.false

lor.lhs.false:                                    ; preds = %land.lhs.true
  %4 = load ptr, ptr %next, align 8
  %call3 = tail call zeroext i1 @equal(ptr noundef %4, ptr noundef nonnull @.str.73) #14
  br i1 %call3, label %if.then, label %lor.lhs.false4

lor.lhs.false4:                                   ; preds = %lor.lhs.false
  %5 = load ptr, ptr %next, align 8
  %call6 = tail call zeroext i1 @equal(ptr noundef %5, ptr noundef nonnull @.str.74) #14
  br i1 %call6, label %if.then, label %if.end

if.then:                                          ; preds = %lor.lhs.false4, %lor.lhs.false, %land.lhs.true
  %6 = load ptr, ptr %next, align 8
  %next8 = getelementptr inbounds %struct.Token, ptr %6, i64 0, i32 1
  %7 = load ptr, ptr %next8, align 8
  %call9 = tail call fastcc ptr @skip_cond_incl2(ptr noundef %7)
  br label %while.cond.backedge

while.cond.backedge:                              ; preds = %if.then, %if.end17
  %tok.addr.0.be = phi ptr [ %call9, %if.then ], [ %14, %if.end17 ]
  %8 = load i32, ptr %tok.addr.0.be, align 16
  %cmp.not = icmp eq i32 %8, 6
  br i1 %cmp.not, label %return, label %while.body, !llvm.loop !51

if.end:                                           ; preds = %while.body, %lor.lhs.false4, %is_hash.exit
  %9 = load i8, ptr %at_bol.i, align 8
  %10 = and i8 %9, 1
  %tobool.not.i12 = icmp eq i8 %10, 0
  br i1 %tobool.not.i12, label %if.end17, label %is_hash.exit15

is_hash.exit15:                                   ; preds = %if.end
  %call.i14 = tail call zeroext i1 @equal(ptr noundef nonnull %tok.addr.019, ptr noundef nonnull @.str.91) #14
  br i1 %call.i14, label %land.lhs.true11, label %if.end17

land.lhs.true11:                                  ; preds = %is_hash.exit15
  %next12 = getelementptr inbounds %struct.Token, ptr %tok.addr.019, i64 0, i32 1
  %11 = load ptr, ptr %next12, align 8
  %call13 = tail call zeroext i1 @equal(ptr noundef %11, ptr noundef nonnull @.str.79) #14
  br i1 %call13, label %if.then14, label %if.end17

if.then14:                                        ; preds = %land.lhs.true11
  %next12.le = getelementptr inbounds %struct.Token, ptr %tok.addr.019, i64 0, i32 1
  %12 = load ptr, ptr %next12.le, align 8
  %next16 = getelementptr inbounds %struct.Token, ptr %12, i64 0, i32 1
  %13 = load ptr, ptr %next16, align 8
  br label %return

if.end17:                                         ; preds = %if.end, %land.lhs.true11, %is_hash.exit15
  %next18 = getelementptr inbounds %struct.Token, ptr %tok.addr.019, i64 0, i32 1
  %14 = load ptr, ptr %next18, align 8
  br label %while.cond.backedge

return:                                           ; preds = %while.cond.backedge, %entry, %if.then14
  %retval.0 = phi ptr [ %13, %if.then14 ], [ %tok, %entry ], [ %tok.addr.0.be, %while.cond.backedge ]
  ret ptr %retval.0
}